; Function Attrs: nounwind uwtable
define dso_local ptr @Curl_hsts_init() local_unnamed_addr #0 {
  %1 = load ptr, ptr @Curl_ccalloc, align 8, !tbaa !4
  %2 = tail call ptr %1(i64 noundef 1, i64 noundef 48) #9
  %.not = icmp eq ptr %2, null
  br i1 %.not, label %4, label %3

3:                                                ; preds = %0
  tail call void @Curl_llist_init(ptr noundef nonnull %2, ptr noundef null) #9
  br label %4

4:                                                ; preds = %3, %0
  ret ptr %2
}